target datalayout = "e-m:e-p270:32:32-p271:32:32-p272:64:64-i64:64-i128:128-f80:128-n8:16:32:64-S128"
target triple = "x86_64-pc-linux-gnu"

%struct.job_record = type { i32, ptr, ptr, ptr, ptr, i16, i32, i32, i32, ptr, i32, ptr, ptr, i16, ptr, double, i64, ptr, ptr, ptr, ptr, ptr, ptr, i32, ptr, i32, i64, i64, i32, i32, ptr, i16, i64, i64, i8, i32, ptr, ptr, ptr, ptr, ptr, ptr, ptr, ptr, i32, ptr, ptr, i32, ptr, i32, ptr, i32, ptr, i32, ptr, ptr, ptr, ptr, ptr, ptr, i32, i16, i64, ptr, ptr, ptr, ptr, %struct.acct_policy_limit_set_t, i16, ptr, ptr, ptr, ptr, ptr, i32, ptr, ptr, ptr, ptr, ptr, i32, i32, ptr, ptr, ptr, i16, ptr, ptr, i8, ptr, ptr, i64, i64, i8, i32, i32, i8, i32, ptr, i32, i64, i32, ptr, ptr, ptr, i8, i16, i64, i32, ptr, ptr, ptr, ptr, ptr, i16, i32, ptr, ptr, ptr, ptr, i32, ptr, i32, i16, i64, ptr, i32, i32, ptr, i64, ptr, ptr, i64, i32, i32, i64, i32, i32, ptr, ptr, ptr, ptr, ptr, ptr, ptr, ptr, ptr, ptr, ptr, ptr, i32, ptr, i16, i16, i16, i16, ptr, i32, i32, i8, i64 }
%struct.acct_policy_limit_set_t = type { i16, i16, ptr }

; Function Attrs: nounwind uwtable
define internal i32 @_foreach_job_boost_prio(ptr noundef %0, ptr noundef %1) #0 {
  %3 = alloca ptr, align 8
  %4 = alloca ptr, align 8
  %5 = alloca ptr, align 8
  %6 = alloca i32, align 4
  store ptr %0, ptr %3, align 8
  store ptr %1, ptr %4, align 8
  call void @llvm.lifetime.start.p0(i64 8, ptr %5) #5
  %7 = load ptr, ptr %3, align 8
  store ptr %7, ptr %5, align 8
  call void @llvm.lifetime.start.p0(i64 4, ptr %6) #5
  %8 = load ptr, ptr %4, align 8
  %9 = load i32, ptr %8, align 4
  store i32 %9, ptr %6, align 4
  %10 = load ptr, ptr %5, align 8
  %11 = getelementptr inbounds nuw %struct.job_record, ptr %10, i32 0, i32 97
  %12 = load i32, ptr %11, align 8
  %13 = icmp ne i32 %12, 0
  br i1 %13, label %14, label %26

14:                                               ; preds = %2
  %15 = load ptr, ptr %5, align 8
  %16 = getelementptr inbounds nuw %struct.job_record, ptr %15, i32 0, i32 31
  %17 = load i16, ptr %16, align 8
  %18 = zext i16 %17 to i32
  %19 = icmp eq i32 %18, 0
  br i1 %19, label %20, label %26

20:                                               ; preds = %14
  %21 = load i32, ptr %6, align 4
  %22 = load ptr, ptr %5, align 8
  %23 = getelementptr inbounds nuw %struct.job_record, ptr %22, i32 0, i32 97
  %24 = load i32, ptr %23, align 8
  %25 = add i32 %24, %21
  store i32 %25, ptr %23, align 8
  br label %26

26:                                               ; preds = %20, %14, %2
  call void @llvm.lifetime.end.p0(i64 4, ptr %6) #5
  call void @llvm.lifetime.end.p0(i64 8, ptr %5) #5
  ret i32 0
}