; Function Attrs: mustprogress nofree norecurse nosync nounwind willreturn memory(argmem: readwrite) uwtable
define internal noundef i32 @_foreach_job_boost_prio(ptr noundef captures(none) %0, ptr noundef readonly captures(none) %1) #5 {
  %3 = load i32, ptr %1, align 4
  %4 = getelementptr inbounds nuw i8, ptr %0, i64 720
  %5 = load i32, ptr %4, align 8
  %.not = icmp eq i32 %5, 0
  br i1 %.not, label %12, label %6

6:                                                ; preds = %2
  %7 = getelementptr inbounds nuw i8, ptr %0, i64 224
  %8 = load i16, ptr %7, align 8
  %9 = icmp eq i16 %8, 0
  br i1 %9, label %10, label %12

10:                                               ; preds = %6
  %11 = add i32 %5, %3
  store i32 %11, ptr %4, align 8
  br label %12

12:                                               ; preds = %10, %6, %2
  ret i32 0
}